target datalayout = "e-m:e-p270:32:32-p271:32:32-p272:64:64-i64:64-i128:128-f80:128-n8:16:32:64-S128"
target triple = "x86_64-pc-linux-gnu"

%struct.GetBitContext = type { ptr, ptr, i32, i32, i32 }

; Function Attrs: alwaysinline nounwind willreturn memory(none) uwtable
define internal i32 @av_bswap32(i32 noundef %0) #10 {
  %2 = alloca i32, align 4
  store i32 %0, ptr %2, align 4, !tbaa !38
  %3 = load i32, ptr %2, align 4, !tbaa !38
  %4 = shl i32 %3, 8
  %5 = and i32 %4, 65280
  %6 = load i32, ptr %2, align 4, !tbaa !38
  %7 = lshr i32 %6, 8
  %8 = and i32 %7, 255
  %9 = or i32 %5, %8
  %10 = shl i32 %9, 16
  %11 = load i32, ptr %2, align 4, !tbaa !38
  %12 = lshr i32 %11, 16
  %13 = shl i32 %12, 8
  %14 = and i32 %13, 65280
  %15 = load i32, ptr %2, align 4, !tbaa !38
  %16 = lshr i32 %15, 16
  %17 = lshr i32 %16, 8
  %18 = and i32 %17, 255
  %19 = or i32 %14, %18
  %20 = or i32 %10, %19
  ret i32 %20
}

; Function Attrs: inlinehint nounwind uwtable
define internal i32 @get_bits(ptr noundef %0, i32 noundef %1) #6 {
  %3 = alloca ptr, align 8
  %4 = alloca i32, align 4
  %5 = alloca i32, align 4
  %6 = alloca i32, align 4
  %7 = alloca i32, align 4
  %8 = alloca i32, align 4
  store ptr %0, ptr %3, align 8, !tbaa !124
  store i32 %1, ptr %4, align 4, !tbaa !38
  call void @llvm.lifetime.start.p0(i64 4, ptr %5) #11
  call void @llvm.lifetime.start.p0(i64 4, ptr %6) #11
  %9 = load ptr, ptr %3, align 8, !tbaa !124
  %10 = getelementptr inbounds nuw %struct.GetBitContext, ptr %9, i32 0, i32 2
  %11 = load i32, ptr %10, align 8, !tbaa !163
  store i32 %11, ptr %6, align 4, !tbaa !38
  call void @llvm.lifetime.start.p0(i64 4, ptr %7) #11
  call void @llvm.lifetime.start.p0(i64 4, ptr %8) #11
  %12 = load ptr, ptr %3, align 8, !tbaa !124
  %13 = getelementptr inbounds nuw %struct.GetBitContext, ptr %12, i32 0, i32 4
  %14 = load i32, ptr %13, align 8, !tbaa !165
  store i32 %14, ptr %8, align 4, !tbaa !38
  %15 = load ptr, ptr %3, align 8, !tbaa !124
  %16 = getelementptr inbounds nuw %struct.GetBitContext, ptr %15, i32 0, i32 0
  %17 = load ptr, ptr %16, align 8, !tbaa !164
  %18 = load i32, ptr %6, align 4, !tbaa !38
  %19 = lshr i32 %18, 3
  %20 = zext i32 %19 to i64
  %21 = getelementptr inbounds nuw i8, ptr %17, i64 %20
  %22 = load i32, ptr %21, align 1, !tbaa !47
  %23 = call i32 @av_bswap32(i32 noundef %22) #13
  %24 = load i32, ptr %6, align 4, !tbaa !38
  %25 = and i32 %24, 7
  %26 = shl i32 %23, %25
  %27 = lshr i32 %26, 0
  store i32 %27, ptr %7, align 4, !tbaa !38
  %28 = load i32, ptr %7, align 4, !tbaa !38
  %29 = load i32, ptr %4, align 4, !tbaa !38
  %30 = sub nsw i32 32, %29
  %31 = lshr i32 %28, %30
  store i32 %31, ptr %5, align 4, !tbaa !38
  %32 = load i32, ptr %8, align 4, !tbaa !38
  %33 = load i32, ptr %6, align 4, !tbaa !38
  %34 = load i32, ptr %4, align 4, !tbaa !38
  %35 = add i32 %33, %34
  %36 = icmp ugt i32 %32, %35
  br i1 %36, label %37, label %41

37:                                               ; preds = %2
  %38 = load i32, ptr %6, align 4, !tbaa !38
  %39 = load i32, ptr %4, align 4, !tbaa !38
  %40 = add i32 %38, %39
  br label %43

41:                                               ; preds = %2
  %42 = load i32, ptr %8, align 4, !tbaa !38
  br label %43

43:                                               ; preds = %41, %37
  %44 = phi i32 [ %40, %37 ], [ %42, %41 ]
  store i32 %44, ptr %6, align 4, !tbaa !38
  %45 = load i32, ptr %6, align 4, !tbaa !38
  %46 = load ptr, ptr %3, align 8, !tbaa !124
  %47 = getelementptr inbounds nuw %struct.GetBitContext, ptr %46, i32 0, i32 2
  store i32 %45, ptr %47, align 8, !tbaa !163
  %48 = load i32, ptr %5, align 4, !tbaa !38
  call void @llvm.lifetime.end.p0(i64 4, ptr %8) #11
  call void @llvm.lifetime.end.p0(i64 4, ptr %7) #11
  call void @llvm.lifetime.end.p0(i64 4, ptr %6) #11
  call void @llvm.lifetime.end.p0(i64 4, ptr %5) #11
  ret i32 %48
}

; Function Attrs: nounwind uwtable
define internal void @lsp_unquant_nb(ptr noundef %0, i32 noundef %1, ptr noundef %2) #1 {
  %4 = alloca ptr, align 8
  %5 = alloca i32, align 4
  %6 = alloca ptr, align 8
  %7 = alloca i32, align 4
  %8 = alloca i32, align 4
  %9 = alloca i32, align 4
  %10 = alloca i32, align 4
  %11 = alloca i32, align 4
  %12 = alloca i32, align 4
  %13 = alloca i32, align 4
  store ptr %0, ptr %4, align 8, !tbaa !75
  store i32 %1, ptr %5, align 4, !tbaa !38
  store ptr %2, ptr %6, align 8, !tbaa !124
  call void @llvm.lifetime.start.p0(i64 4, ptr %7) #11
  call void @llvm.lifetime.start.p0(i64 4, ptr %8) #11
  store i32 0, ptr %8, align 4, !tbaa !38
  br label %14

14:                                               ; preds = %27, %3
  %15 = load i32, ptr %8, align 4, !tbaa !38
  %16 = load i32, ptr %5, align 4, !tbaa !38
  %17 = icmp slt i32 %15, %16
  br i1 %17, label %19, label %18

18:                                               ; preds = %14
  call void @llvm.lifetime.end.p0(i64 4, ptr %8) #11
  br label %30

19:                                               ; preds = %14
  %20 = load i32, ptr %8, align 4, !tbaa !38
  %21 = sitofp i32 %20 to float
  %22 = call nsz float @llvm.fmuladd.f32(float 2.500000e-01, float %21, float 2.500000e-01)
  %23 = load ptr, ptr %4, align 8, !tbaa !75
  %24 = load i32, ptr %8, align 4, !tbaa !38
  %25 = sext i32 %24 to i64
  %26 = getelementptr inbounds float, ptr %23, i64 %25
  store float %22, ptr %26, align 4, !tbaa !64
  br label %27

27:                                               ; preds = %19
  %28 = load i32, ptr %8, align 4, !tbaa !38
  %29 = add nsw i32 %28, 1
  store i32 %29, ptr %8, align 4, !tbaa !38
  br label %14, !llvm.loop !220

30:                                               ; preds = %18
  %31 = load ptr, ptr %6, align 8, !tbaa !124
  %32 = call i32 @get_bits(ptr noundef %31, i32 noundef 6)
  store i32 %32, ptr %7, align 4, !tbaa !38
  call void @llvm.lifetime.start.p0(i64 4, ptr %9) #11
  store i32 0, ptr %9, align 4, !tbaa !38
  br label %33

33:                                               ; preds = %53, %30
  %34 = load i32, ptr %9, align 4, !tbaa !38
  %35 = icmp slt i32 %34, 10
  br i1 %35, label %37, label %36

36:                                               ; preds = %33
  call void @llvm.lifetime.end.p0(i64 4, ptr %9) #11
  br label %56

37:                                               ; preds = %33
  %38 = load i32, ptr %7, align 4, !tbaa !38
  %39 = mul nsw i32 %38, 10
  %40 = load i32, ptr %9, align 4, !tbaa !38
  %41 = add nsw i32 %39, %40
  %42 = sext i32 %41 to i64
  %43 = getelementptr inbounds [640 x i8], ptr @cdbk_nb, i64 0, i64 %42
  %44 = load i8, ptr %43, align 1, !tbaa !47
  %45 = sext i8 %44 to i32
  %46 = sitofp i32 %45 to float
  %47 = load ptr, ptr %4, align 8, !tbaa !75
  %48 = load i32, ptr %9, align 4, !tbaa !38
  %49 = sext i32 %48 to i64
  %50 = getelementptr inbounds float, ptr %47, i64 %49
  %51 = load float, ptr %50, align 4, !tbaa !64
  %52 = call nsz float @llvm.fmuladd.f32(float 3.906250e-03, float %46, float %51)
  store float %52, ptr %50, align 4, !tbaa !64
  br label %53

53:                                               ; preds = %37
  %54 = load i32, ptr %9, align 4, !tbaa !38
  %55 = add nsw i32 %54, 1
  store i32 %55, ptr %9, align 4, !tbaa !38
  br label %33, !llvm.loop !221

56:                                               ; preds = %36
  %57 = load ptr, ptr %6, align 8, !tbaa !124
  %58 = call i32 @get_bits(ptr noundef %57, i32 noundef 6)
  store i32 %58, ptr %7, align 4, !tbaa !38
  call void @llvm.lifetime.start.p0(i64 4, ptr %10) #11
  store i32 0, ptr %10, align 4, !tbaa !38
  br label %59

59:                                               ; preds = %79, %56
  %60 = load i32, ptr %10, align 4, !tbaa !38
  %61 = icmp slt i32 %60, 5
  br i1 %61, label %63, label %62

62:                                               ; preds = %59
  call void @llvm.lifetime.end.p0(i64 4, ptr %10) #11
  br label %82

63:                                               ; preds = %59
  %64 = load i32, ptr %7, align 4, !tbaa !38
  %65 = mul nsw i32 %64, 5
  %66 = load i32, ptr %10, align 4, !tbaa !38
  %67 = add nsw i32 %65, %66
  %68 = sext i32 %67 to i64
  %69 = getelementptr inbounds [320 x i8], ptr @cdbk_nb_low1, i64 0, i64 %68
  %70 = load i8, ptr %69, align 1, !tbaa !47
  %71 = sext i8 %70 to i32
  %72 = sitofp i32 %71 to float
  %73 = load ptr, ptr %4, align 8, !tbaa !75
  %74 = load i32, ptr %10, align 4, !tbaa !38
  %75 = sext i32 %74 to i64
  %76 = getelementptr inbounds float, ptr %73, i64 %75
  %77 = load float, ptr %76, align 4, !tbaa !64
  %78 = call nsz float @llvm.fmuladd.f32(float 0x3F60000000000000, float %72, float %77)
  store float %78, ptr %76, align 4, !tbaa !64
  br label %79

79:                                               ; preds = %63
  %80 = load i32, ptr %10, align 4, !tbaa !38
  %81 = add nsw i32 %80, 1
  store i32 %81, ptr %10, align 4, !tbaa !38
  br label %59, !llvm.loop !222

82:                                               ; preds = %62
  %83 = load ptr, ptr %6, align 8, !tbaa !124
  %84 = call i32 @get_bits(ptr noundef %83, i32 noundef 6)
  store i32 %84, ptr %7, align 4, !tbaa !38
  call void @llvm.lifetime.start.p0(i64 4, ptr %11) #11
  store i32 0, ptr %11, align 4, !tbaa !38
  br label %85

85:                                               ; preds = %105, %82
  %86 = load i32, ptr %11, align 4, !tbaa !38
  %87 = icmp slt i32 %86, 5
  br i1 %87, label %89, label %88

88:                                               ; preds = %85
  call void @llvm.lifetime.end.p0(i64 4, ptr %11) #11
  br label %108

89:                                               ; preds = %85
  %90 = load i32, ptr %7, align 4, !tbaa !38
  %91 = mul nsw i32 %90, 5
  %92 = load i32, ptr %11, align 4, !tbaa !38
  %93 = add nsw i32 %91, %92
  %94 = sext i32 %93 to i64
  %95 = getelementptr inbounds [320 x i8], ptr @cdbk_nb_low2, i64 0, i64 %94
  %96 = load i8, ptr %95, align 1, !tbaa !47
  %97 = sext i8 %96 to i32
  %98 = sitofp i32 %97 to float
  %99 = load ptr, ptr %4, align 8, !tbaa !75
  %100 = load i32, ptr %11, align 4, !tbaa !38
  %101 = sext i32 %100 to i64
  %102 = getelementptr inbounds float, ptr %99, i64 %101
  %103 = load float, ptr %102, align 4, !tbaa !64
  %104 = call nsz float @llvm.fmuladd.f32(float 0x3F50000000000000, float %98, float %103)
  store float %104, ptr %102, align 4, !tbaa !64
  br label %105

105:                                              ; preds = %89
  %106 = load i32, ptr %11, align 4, !tbaa !38
  %107 = add nsw i32 %106, 1
  store i32 %107, ptr %11, align 4, !tbaa !38
  br label %85, !llvm.loop !223

108:                                              ; preds = %88
  %109 = load ptr, ptr %6, align 8, !tbaa !124
  %110 = call i32 @get_bits(ptr noundef %109, i32 noundef 6)
  store i32 %110, ptr %7, align 4, !tbaa !38
  call void @llvm.lifetime.start.p0(i64 4, ptr %12) #11
  store i32 0, ptr %12, align 4, !tbaa !38
  br label %111

111:                                              ; preds = %132, %108
  %112 = load i32, ptr %12, align 4, !tbaa !38
  %113 = icmp slt i32 %112, 5
  br i1 %113, label %115, label %114

114:                                              ; preds = %111
  call void @llvm.lifetime.end.p0(i64 4, ptr %12) #11
  br label %135

115:                                              ; preds = %111
  %116 = load i32, ptr %7, align 4, !tbaa !38
  %117 = mul nsw i32 %116, 5
  %118 = load i32, ptr %12, align 4, !tbaa !38
  %119 = add nsw i32 %117, %118
  %120 = sext i32 %119 to i64
  %121 = getelementptr inbounds [320 x i8], ptr @cdbk_nb_high1, i64 0, i64 %120
  %122 = load i8, ptr %121, align 1, !tbaa !47
  %123 = sext i8 %122 to i32
  %124 = sitofp i32 %123 to float
  %125 = load ptr, ptr %4, align 8, !tbaa !75
  %126 = load i32, ptr %12, align 4, !tbaa !38
  %127 = add nsw i32 %126, 5
  %128 = sext i32 %127 to i64
  %129 = getelementptr inbounds float, ptr %125, i64 %128
  %130 = load float, ptr %129, align 4, !tbaa !64
  %131 = call nsz float @llvm.fmuladd.f32(float 0x3F60000000000000, float %124, float %130)
  store float %131, ptr %129, align 4, !tbaa !64
  br label %132

132:                                              ; preds = %115
  %133 = load i32, ptr %12, align 4, !tbaa !38
  %134 = add nsw i32 %133, 1
  store i32 %134, ptr %12, align 4, !tbaa !38
  br label %111, !llvm.loop !224

135:                                              ; preds = %114
  %136 = load ptr, ptr %6, align 8, !tbaa !124
  %137 = call i32 @get_bits(ptr noundef %136, i32 noundef 6)
  store i32 %137, ptr %7, align 4, !tbaa !38
  call void @llvm.lifetime.start.p0(i64 4, ptr %13) #11
  store i32 0, ptr %13, align 4, !tbaa !38
  br label %138

138:                                              ; preds = %159, %135
  %139 = load i32, ptr %13, align 4, !tbaa !38
  %140 = icmp slt i32 %139, 5
  br i1 %140, label %142, label %141

141:                                              ; preds = %138
  call void @llvm.lifetime.end.p0(i64 4, ptr %13) #11
  br label %162

142:                                              ; preds = %138
  %143 = load i32, ptr %7, align 4, !tbaa !38
  %144 = mul nsw i32 %143, 5
  %145 = load i32, ptr %13, align 4, !tbaa !38
  %146 = add nsw i32 %144, %145
  %147 = sext i32 %146 to i64
  %148 = getelementptr inbounds [320 x i8], ptr @cdbk_nb_high2, i64 0, i64 %147
  %149 = load i8, ptr %148, align 1, !tbaa !47
  %150 = sext i8 %149 to i32
  %151 = sitofp i32 %150 to float
  %152 = load ptr, ptr %4, align 8, !tbaa !75
  %153 = load i32, ptr %13, align 4, !tbaa !38
  %154 = add nsw i32 %153, 5
  %155 = sext i32 %154 to i64
  %156 = getelementptr inbounds float, ptr %152, i64 %155
  %157 = load float, ptr %156, align 4, !tbaa !64
  %158 = call nsz float @llvm.fmuladd.f32(float 0x3F50000000000000, float %151, float %157)
  store float %158, ptr %156, align 4, !tbaa !64
  br label %159

159:                                              ; preds = %142
  %160 = load i32, ptr %13, align 4, !tbaa !38
  %161 = add nsw i32 %160, 1
  store i32 %161, ptr %13, align 4, !tbaa !38
  br label %138, !llvm.loop !225

162:                                              ; preds = %141
  call void @llvm.lifetime.end.p0(i64 4, ptr %7) #11
  ret void
}