; Function Attrs: nofree norecurse nosync nounwind memory(read, argmem: readwrite, inaccessiblemem: none) uwtable
define internal void @lsp_unquant_nb(ptr noundef captures(none) %0, i32 noundef %1, ptr noundef captures(none) %2) #9 {
  %4 = icmp sgt i32 %1, 0
  br i1 %4, label %.lr.ph.preheader, label %._crit_edge

.lr.ph.preheader:                                 ; preds = %3
  %wide.trip.count = zext nneg i32 %1 to i64
  br label %.lr.ph

._crit_edge:                                      ; preds = %.lr.ph, %3
  %5 = getelementptr inbounds nuw i8, ptr %2, i64 16
  %6 = load i32, ptr %5, align 8, !tbaa !94
  %7 = getelementptr inbounds nuw i8, ptr %2, i64 24
  %8 = load i32, ptr %7, align 8, !tbaa !92
  %9 = load ptr, ptr %2, align 8, !tbaa !90
  %10 = lshr i32 %6, 3
  %11 = zext nneg i32 %10 to i64
  %12 = getelementptr inbounds nuw i8, ptr %9, i64 %11
  %13 = load i32, ptr %12, align 1, !tbaa !34
  %14 = tail call i32 @llvm.bswap.i32(i32 %13)
  %15 = and i32 %6, 7
  %16 = shl i32 %14, %15
  %17 = lshr i32 %16, 26
  %18 = add i32 %6, 6
  %19 = tail call i32 @llvm.umin.i32(i32 %8, i32 %18)
  store i32 %19, ptr %5, align 8, !tbaa !94
  %20 = mul nuw nsw i32 %17, 10
  %21 = zext nneg i32 %20 to i64
  br label %39

.lr.ph:                                           ; preds = %.lr.ph.preheader, %.lr.ph
  %indvars.iv = phi i64 [ 0, %.lr.ph.preheader ], [ %indvars.iv.next, %.lr.ph ]
  %22 = trunc nuw nsw i64 %indvars.iv to i32
  %23 = uitofp nneg i32 %22 to float
  %24 = tail call nsz float @llvm.fmuladd.f32(float %23, float 2.500000e-01, float 2.500000e-01)
  %25 = getelementptr inbounds nuw float, ptr %0, i64 %indvars.iv
  store float %24, ptr %25, align 4, !tbaa !105
  %indvars.iv.next = add nuw nsw i64 %indvars.iv, 1
  %exitcond.not = icmp eq i64 %indvars.iv.next, %wide.trip.count
  br i1 %exitcond.not, label %._crit_edge, label %.lr.ph, !llvm.loop !201

26:                                               ; preds = %39
  %27 = lshr i32 %19, 3
  %28 = zext nneg i32 %27 to i64
  %29 = getelementptr inbounds nuw i8, ptr %9, i64 %28
  %30 = load i32, ptr %29, align 1, !tbaa !34
  %31 = tail call i32 @llvm.bswap.i32(i32 %30)
  %32 = and i32 %19, 7
  %33 = shl i32 %31, %32
  %34 = lshr i32 %33, 26
  %35 = add i32 %19, 6
  %36 = tail call i32 @llvm.umin.i32(i32 %8, i32 %35)
  store i32 %36, ptr %5, align 8, !tbaa !94
  %37 = mul nuw nsw i32 %34, 5
  %38 = zext nneg i32 %37 to i64
  br label %60

39:                                               ; preds = %._crit_edge, %39
  %indvars.iv54 = phi i64 [ 0, %._crit_edge ], [ %indvars.iv.next55, %39 ]
  %40 = add nuw nsw i64 %indvars.iv54, %21
  %41 = getelementptr inbounds nuw [640 x i8], ptr @cdbk_nb, i64 0, i64 %40
  %42 = load i8, ptr %41, align 1, !tbaa !34
  %43 = sitofp i8 %42 to float
  %44 = getelementptr inbounds nuw float, ptr %0, i64 %indvars.iv54
  %45 = load float, ptr %44, align 4, !tbaa !105
  %46 = tail call nsz float @llvm.fmuladd.f32(float %43, float 3.906250e-03, float %45)
  store float %46, ptr %44, align 4, !tbaa !105
  %indvars.iv.next55 = add nuw nsw i64 %indvars.iv54, 1
  %exitcond57.not = icmp eq i64 %indvars.iv.next55, 10
  br i1 %exitcond57.not, label %26, label %39, !llvm.loop !202

47:                                               ; preds = %60
  %48 = lshr i32 %36, 3
  %49 = zext nneg i32 %48 to i64
  %50 = getelementptr inbounds nuw i8, ptr %9, i64 %49
  %51 = load i32, ptr %50, align 1, !tbaa !34
  %52 = tail call i32 @llvm.bswap.i32(i32 %51)
  %53 = and i32 %36, 7
  %54 = shl i32 %52, %53
  %55 = lshr i32 %54, 26
  %56 = add i32 %36, 6
  %57 = tail call i32 @llvm.umin.i32(i32 %8, i32 %56)
  store i32 %57, ptr %5, align 8, !tbaa !94
  %58 = mul nuw nsw i32 %55, 5
  %59 = zext nneg i32 %58 to i64
  br label %81

60:                                               ; preds = %26, %60
  %indvars.iv58 = phi i64 [ 0, %26 ], [ %indvars.iv.next59, %60 ]
  %61 = add nuw nsw i64 %indvars.iv58, %38
  %62 = getelementptr inbounds nuw [320 x i8], ptr @cdbk_nb_low1, i64 0, i64 %61
  %63 = load i8, ptr %62, align 1, !tbaa !34
  %64 = sitofp i8 %63 to float
  %65 = getelementptr inbounds nuw float, ptr %0, i64 %indvars.iv58
  %66 = load float, ptr %65, align 4, !tbaa !105
  %67 = tail call nsz float @llvm.fmuladd.f32(float %64, float 0x3F60000000000000, float %66)
  store float %67, ptr %65, align 4, !tbaa !105
  %indvars.iv.next59 = add nuw nsw i64 %indvars.iv58, 1
  %exitcond61.not = icmp eq i64 %indvars.iv.next59, 5
  br i1 %exitcond61.not, label %47, label %60, !llvm.loop !203

68:                                               ; preds = %81
  %69 = lshr i32 %57, 3
  %70 = zext nneg i32 %69 to i64
  %71 = getelementptr inbounds nuw i8, ptr %9, i64 %70
  %72 = load i32, ptr %71, align 1, !tbaa !34
  %73 = tail call i32 @llvm.bswap.i32(i32 %72)
  %74 = and i32 %57, 7
  %75 = shl i32 %73, %74
  %76 = lshr i32 %75, 26
  %77 = add i32 %57, 6
  %78 = tail call i32 @llvm.umin.i32(i32 %8, i32 %77)
  store i32 %78, ptr %5, align 8, !tbaa !94
  %79 = mul nuw nsw i32 %76, 5
  %invariant.gep = getelementptr inbounds nuw i8, ptr %0, i64 20
  %80 = zext nneg i32 %79 to i64
  br label %102

81:                                               ; preds = %47, %81
  %indvars.iv62 = phi i64 [ 0, %47 ], [ %indvars.iv.next63, %81 ]
  %82 = add nuw nsw i64 %indvars.iv62, %59
  %83 = getelementptr inbounds nuw [320 x i8], ptr @cdbk_nb_low2, i64 0, i64 %82
  %84 = load i8, ptr %83, align 1, !tbaa !34
  %85 = sitofp i8 %84 to float
  %86 = getelementptr inbounds nuw float, ptr %0, i64 %indvars.iv62
  %87 = load float, ptr %86, align 4, !tbaa !105
  %88 = tail call nsz float @llvm.fmuladd.f32(float %85, float 0x3F50000000000000, float %87)
  store float %88, ptr %86, align 4, !tbaa !105
  %indvars.iv.next63 = add nuw nsw i64 %indvars.iv62, 1
  %exitcond65.not = icmp eq i64 %indvars.iv.next63, 5
  br i1 %exitcond65.not, label %68, label %81, !llvm.loop !204

89:                                               ; preds = %102
  %90 = lshr i32 %78, 3
  %91 = zext nneg i32 %90 to i64
  %92 = getelementptr inbounds nuw i8, ptr %9, i64 %91
  %93 = load i32, ptr %92, align 1, !tbaa !34
  %94 = tail call i32 @llvm.bswap.i32(i32 %93)
  %95 = and i32 %78, 7
  %96 = shl i32 %94, %95
  %97 = lshr i32 %96, 26
  %98 = add i32 %78, 6
  %99 = tail call i32 @llvm.umin.i32(i32 %8, i32 %98)
  store i32 %99, ptr %5, align 8, !tbaa !94
  %100 = mul nuw nsw i32 %97, 5
  %101 = zext nneg i32 %100 to i64
  br label %110

102:                                              ; preds = %68, %102
  %indvars.iv66 = phi i64 [ 0, %68 ], [ %indvars.iv.next67, %102 ]
  %103 = add nuw nsw i64 %indvars.iv66, %80
  %104 = getelementptr inbounds nuw [320 x i8], ptr @cdbk_nb_high1, i64 0, i64 %103
  %105 = load i8, ptr %104, align 1, !tbaa !34
  %106 = sitofp i8 %105 to float
  %gep = getelementptr inbounds nuw float, ptr %invariant.gep, i64 %indvars.iv66
  %107 = load float, ptr %gep, align 4, !tbaa !105
  %108 = tail call nsz float @llvm.fmuladd.f32(float %106, float 0x3F60000000000000, float %107)
  store float %108, ptr %gep, align 4, !tbaa !105
  %indvars.iv.next67 = add nuw nsw i64 %indvars.iv66, 1
  %exitcond69.not = icmp eq i64 %indvars.iv.next67, 5
  br i1 %exitcond69.not, label %89, label %102, !llvm.loop !205

109:                                              ; preds = %110
  ret void

110:                                              ; preds = %89, %110
  %indvars.iv70 = phi i64 [ 0, %89 ], [ %indvars.iv.next71, %110 ]
  %111 = add nuw nsw i64 %indvars.iv70, %101
  %112 = getelementptr inbounds nuw [320 x i8], ptr @cdbk_nb_high2, i64 0, i64 %111
  %113 = load i8, ptr %112, align 1, !tbaa !34
  %114 = sitofp i8 %113 to float
  %gep51 = getelementptr inbounds nuw float, ptr %invariant.gep, i64 %indvars.iv70
  %115 = load float, ptr %gep51, align 4, !tbaa !105
  %116 = tail call nsz float @llvm.fmuladd.f32(float %114, float 0x3F50000000000000, float %115)
  store float %116, ptr %gep51, align 4, !tbaa !105
  %indvars.iv.next71 = add nuw nsw i64 %indvars.iv70, 1
  %exitcond73.not = icmp eq i64 %indvars.iv.next71, 5
  br i1 %exitcond73.not, label %109, label %110, !llvm.loop !206
}